target datalayout = "e-m:e-p270:32:32-p271:32:32-p272:64:64-i64:64-i128:128-f80:128-n8:16:32:64-S128"
target triple = "x86_64-pc-linux-gnu"

%struct.revision_sources = type { i32, i32, i32, ptr }

; Function Attrs: nounwind uwtable
define dso_local void @clear_revision_sources(ptr noundef %0) #0 {
  %2 = alloca ptr, align 8
  %3 = alloca i32, align 4
  store ptr %0, ptr %2, align 8, !tbaa !4
  call void @llvm.lifetime.start.p0(i64 4, ptr %3) #12
  store i32 0, ptr %3, align 4, !tbaa !9
  br label %4

4:                                                ; preds = %18, %1
  %5 = load i32, ptr %3, align 4, !tbaa !9
  %6 = load ptr, ptr %2, align 8, !tbaa !4
  %7 = getelementptr inbounds nuw %struct.revision_sources, ptr %6, i32 0, i32 2
  %8 = load i32, ptr %7, align 8, !tbaa !15
  %9 = icmp ult i32 %5, %8
  br i1 %9, label %10, label %21

10:                                               ; preds = %4
  %11 = load ptr, ptr %2, align 8, !tbaa !4
  %12 = getelementptr inbounds nuw %struct.revision_sources, ptr %11, i32 0, i32 3
  %13 = load ptr, ptr %12, align 8, !tbaa !16
  %14 = load i32, ptr %3, align 4, !tbaa !9
  %15 = zext i32 %14 to i64
  %16 = getelementptr inbounds nuw ptr, ptr %13, i64 %15
  %17 = load ptr, ptr %16, align 8, !tbaa !17
  call void @free(ptr noundef %17) #12
  br label %18

18:                                               ; preds = %10
  %19 = load i32, ptr %3, align 4, !tbaa !9
  %20 = add i32 %19, 1
  store i32 %20, ptr %3, align 4, !tbaa !9
  br label %4, !llvm.loop !19

21:                                               ; preds = %4
  %22 = load ptr, ptr %2, align 8, !tbaa !4
  %23 = getelementptr inbounds nuw %struct.revision_sources, ptr %22, i32 0, i32 2
  store i32 0, ptr %23, align 8, !tbaa !15
  br label %24

24:                                               ; preds = %21
  %25 = load ptr, ptr %2, align 8, !tbaa !4
  %26 = getelementptr inbounds nuw %struct.revision_sources, ptr %25, i32 0, i32 3
  %27 = load ptr, ptr %26, align 8, !tbaa !16
  call void @free(ptr noundef %27) #12
  %28 = load ptr, ptr %2, align 8, !tbaa !4
  %29 = getelementptr inbounds nuw %struct.revision_sources, ptr %28, i32 0, i32 3
  store ptr null, ptr %29, align 8, !tbaa !16
  br label %30

30:                                               ; preds = %24
  br label %31

31:                                               ; preds = %30
  call void @llvm.lifetime.end.p0(i64 4, ptr %3) #12
  ret void
}

; Function Attrs: nounwind uwtable
define dso_local void @deep_clear_revision_sources(ptr noundef %0, ptr noundef %1) #0 {
  %3 = alloca ptr, align 8
  %4 = alloca ptr, align 8
  %5 = alloca i32, align 4
  %6 = alloca i32, align 4
  %7 = alloca i32, align 4
  store ptr %0, ptr %3, align 8, !tbaa !4
  store ptr %1, ptr %4, align 8, !tbaa !21
  call void @llvm.lifetime.start.p0(i64 4, ptr %5) #12
  store i32 0, ptr %5, align 4, !tbaa !9
  br label %8

8:                                                ; preds = %54, %2
  %9 = load i32, ptr %5, align 4, !tbaa !9
  %10 = load ptr, ptr %3, align 8, !tbaa !4
  %11 = getelementptr inbounds nuw %struct.revision_sources, ptr %10, i32 0, i32 2
  %12 = load i32, ptr %11, align 8, !tbaa !15
  %13 = icmp ult i32 %9, %12
  br i1 %13, label %14, label %57

14:                                               ; preds = %8
  call void @llvm.lifetime.start.p0(i64 4, ptr %6) #12
  %15 = load ptr, ptr %3, align 8, !tbaa !4
  %16 = getelementptr inbounds nuw %struct.revision_sources, ptr %15, i32 0, i32 3
  %17 = load ptr, ptr %16, align 8, !tbaa !16
  %18 = load i32, ptr %5, align 4, !tbaa !9
  %19 = zext i32 %18 to i64
  %20 = getelementptr inbounds nuw ptr, ptr %17, i64 %19
  %21 = load ptr, ptr %20, align 8, !tbaa !17
  %22 = icmp ne ptr %21, null
  br i1 %22, label %24, label %23

23:                                               ; preds = %14
  store i32 4, ptr %7, align 4
  br label %51

24:                                               ; preds = %14
  store i32 0, ptr %6, align 4, !tbaa !9
  br label %25

25:                                               ; preds = %47, %24
  %26 = load i32, ptr %6, align 4, !tbaa !9
  %27 = load ptr, ptr %3, align 8, !tbaa !4
  %28 = getelementptr inbounds nuw %struct.revision_sources, ptr %27, i32 0, i32 0
  %29 = load i32, ptr %28, align 8, !tbaa !14
  %30 = icmp ult i32 %26, %29
  br i1 %30, label %31, label %50

31:                                               ; preds = %25
  %32 = load ptr, ptr %4, align 8, !tbaa !21
  %33 = load ptr, ptr %3, align 8, !tbaa !4
  %34 = getelementptr inbounds nuw %struct.revision_sources, ptr %33, i32 0, i32 3
  %35 = load ptr, ptr %34, align 8, !tbaa !16
  %36 = load i32, ptr %5, align 4, !tbaa !9
  %37 = zext i32 %36 to i64
  %38 = getelementptr inbounds nuw ptr, ptr %35, i64 %37
  %39 = load ptr, ptr %38, align 8, !tbaa !17
  %40 = load i32, ptr %6, align 4, !tbaa !9
  %41 = load ptr, ptr %3, align 8, !tbaa !4
  %42 = getelementptr inbounds nuw %struct.revision_sources, ptr %41, i32 0, i32 1
  %43 = load i32, ptr %42, align 4, !tbaa !11
  %44 = mul i32 %40, %43
  %45 = zext i32 %44 to i64
  %46 = getelementptr inbounds nuw ptr, ptr %39, i64 %45
  call void %32(ptr noundef %46)
  br label %47

47:                                               ; preds = %31
  %48 = load i32, ptr %6, align 4, !tbaa !9
  %49 = add i32 %48, 1
  store i32 %49, ptr %6, align 4, !tbaa !9
  br label %25, !llvm.loop !22

50:                                               ; preds = %25
  store i32 0, ptr %7, align 4
  br label %51

51:                                               ; preds = %50, %23
  call void @llvm.lifetime.end.p0(i64 4, ptr %6) #12
  %52 = load i32, ptr %7, align 4
  switch i32 %52, label %59 [
    i32 0, label %53
    i32 4, label %54
  ]

53:                                               ; preds = %51
  br label %54

54:                                               ; preds = %53, %51
  %55 = load i32, ptr %5, align 4, !tbaa !9
  %56 = add i32 %55, 1
  store i32 %56, ptr %5, align 4, !tbaa !9
  br label %8, !llvm.loop !23

57:                                               ; preds = %8
  %58 = load ptr, ptr %3, align 8, !tbaa !4
  call void @clear_revision_sources(ptr noundef %58)
  call void @llvm.lifetime.end.p0(i64 4, ptr %5) #12
  ret void

59:                                               ; preds = %51
  unreachable
}