; Function Attrs: nounwind uwtable
define dso_local void @deep_clear_revision_sources(ptr noundef captures(none) %0, ptr noundef readonly captures(none) %1) local_unnamed_addr #2 {
  %3 = getelementptr inbounds nuw i8, ptr %0, i64 8
  %4 = load i32, ptr %3, align 8, !tbaa !12
  %.not18 = icmp eq i32 %4, 0
  br i1 %.not18, label %clear_revision_sources.exit, label %.lr.ph17

.lr.ph17:                                         ; preds = %2
  %5 = getelementptr inbounds nuw i8, ptr %0, i64 16
  %6 = getelementptr inbounds nuw i8, ptr %0, i64 4
  br label %7

7:                                                ; preds = %.lr.ph17, %.loopexit
  %8 = phi i32 [ %4, %.lr.ph17 ], [ %23, %.loopexit ]
  %indvars.iv = phi i64 [ 0, %.lr.ph17 ], [ %indvars.iv.next, %.loopexit ]
  %9 = load ptr, ptr %5, align 8, !tbaa !13
  %10 = getelementptr inbounds nuw ptr, ptr %9, i64 %indvars.iv
  %11 = load ptr, ptr %10, align 8, !tbaa !14
  %.not = icmp eq ptr %11, null
  br i1 %.not, label %.loopexit, label %.preheader

.preheader:                                       ; preds = %7
  %12 = load i32, ptr %0, align 8, !tbaa !11
  %.not19 = icmp eq i32 %12, 0
  br i1 %.not19, label %.loopexit, label %.lr.ph

.lr.ph:                                           ; preds = %.preheader, %.lr.ph
  %.015 = phi i32 [ %20, %.lr.ph ], [ 0, %.preheader ]
  %13 = load ptr, ptr %5, align 8, !tbaa !13
  %14 = getelementptr inbounds nuw ptr, ptr %13, i64 %indvars.iv
  %15 = load ptr, ptr %14, align 8, !tbaa !14
  %16 = load i32, ptr %6, align 4, !tbaa !4
  %17 = mul i32 %16, %.015
  %18 = zext i32 %17 to i64
  %19 = getelementptr inbounds nuw ptr, ptr %15, i64 %18
  tail call void %1(ptr noundef %19) #26
  %20 = add nuw i32 %.015, 1
  %21 = load i32, ptr %0, align 8, !tbaa !11
  %22 = icmp ult i32 %20, %21
  br i1 %22, label %.lr.ph, label %.loopexit.loopexit, !llvm.loop !18

.loopexit.loopexit:                               ; preds = %.lr.ph
  %.pre = load i32, ptr %3, align 8, !tbaa !12
  br label %.loopexit

.loopexit:                                        ; preds = %.loopexit.loopexit, %.preheader, %7
  %23 = phi i32 [ %.pre, %.loopexit.loopexit ], [ %8, %.preheader ], [ %8, %7 ]
  %indvars.iv.next = add nuw nsw i64 %indvars.iv, 1
  %24 = zext i32 %23 to i64
  %25 = icmp samesign ult i64 %indvars.iv.next, %24
  br i1 %25, label %7, label %._crit_edge, !llvm.loop !19

._crit_edge:                                      ; preds = %.loopexit
  %26 = icmp eq i32 %23, 0
  br i1 %26, label %clear_revision_sources.exit, label %.lr.ph.i

.lr.ph.i:                                         ; preds = %._crit_edge
  %27 = getelementptr inbounds nuw i8, ptr %0, i64 16
  br label %28

28:                                               ; preds = %28, %.lr.ph.i
  %indvars.iv.i = phi i64 [ 0, %.lr.ph.i ], [ %indvars.iv.next.i, %28 ]
  %29 = load ptr, ptr %27, align 8, !tbaa !13
  %30 = getelementptr inbounds nuw ptr, ptr %29, i64 %indvars.iv.i
  %31 = load ptr, ptr %30, align 8, !tbaa !14
  tail call void @free(ptr noundef %31) #26
  %indvars.iv.next.i = add nuw nsw i64 %indvars.iv.i, 1
  %32 = load i32, ptr %3, align 8, !tbaa !12
  %33 = zext i32 %32 to i64
  %34 = icmp samesign ult i64 %indvars.iv.next.i, %33
  br i1 %34, label %28, label %clear_revision_sources.exit, !llvm.loop !16

clear_revision_sources.exit:                      ; preds = %28, %2, %._crit_edge
  store i32 0, ptr %3, align 8, !tbaa !12
  %35 = getelementptr inbounds nuw i8, ptr %0, i64 16
  %36 = load ptr, ptr %35, align 8, !tbaa !13
  tail call void @free(ptr noundef %36) #26
  store ptr null, ptr %35, align 8, !tbaa !13
  ret void
}